(dp1
S'server_protocol_plugin'
p2
ccopy_reg
_reconstructor
p3
(ctwisted.plugin
CachedDropin
p4
c__builtin__
object
p5
NtRp6
(dp7
S'moduleName'
p8
S'twisted.plugins.server_protocol_plugin'
p9
sS'description'
p10
S'\nCreated on Nov 9, 2014\n@author: Mohammed Hamdy\nusage : twistd whoisserver\n'
p11
sS'plugins'
p12
(lp13
g3
(ctwisted.plugin
CachedPlugin
p14
g5
NtRp15
(dp16
S'provided'
p17
(lp18
ctwisted.plugin
IPlugin
p19
actwisted.application.service
IServiceMaker
p20
asS'dropin'
p21
g6
sS'name'
p22
S'service_maker'
p23
sg10
NsbasbsS'client_protocol_plugin'
p24
g3
(g4
g5
NtRp25
(dp26
g8
S'twisted.plugins.client_protocol_plugin'
p27
sg10
S'\nCreated on Nov 9, 2014\n@author: Mohammed Hamdy\nusage : twistd whoisclient --address <server_address>\n'
p28
sg12
(lp29
g3
(g14
g5
NtRp30
(dp31
g17
(lp32
g20
ag19
asg21
g25
sg22
g23
sg10
Nsbasbs.